target datalayout = "e-m:e-p270:32:32-p271:32:32-p272:64:64-i64:64-i128:128-f80:128-n8:16:32:64-S128"
target triple = "x86_64-pc-linux-gnu"

%struct._object = type { %union.anon, ptr }
%union.anon = type { i64 }
%struct.reversedobject = type { %struct._object, i64, ptr }

; Function Attrs: nounwind uwtable
define internal ptr @reversed_len(ptr noundef %0, ptr noundef %1) #0 {
  %3 = alloca ptr, align 8
  %4 = alloca ptr, align 8
  %5 = alloca ptr, align 8
  %6 = alloca ptr, align 8
  %7 = alloca i64, align 8
  %8 = alloca i64, align 8
  %9 = alloca i32, align 4
  store ptr %0, ptr %4, align 8, !tbaa !4
  store ptr %1, ptr %5, align 8, !tbaa !4
  call void @llvm.lifetime.start.p0(i64 8, ptr %6) #7
  %10 = load ptr, ptr %4, align 8, !tbaa !4
  store ptr %10, ptr %6, align 8, !tbaa !9
  call void @llvm.lifetime.start.p0(i64 8, ptr %7) #7
  call void @llvm.lifetime.start.p0(i64 8, ptr %8) #7
  %11 = load ptr, ptr %6, align 8, !tbaa !9
  %12 = getelementptr inbounds nuw %struct.reversedobject, ptr %11, i32 0, i32 2
  %13 = load ptr, ptr %12, align 8, !tbaa !33
  %14 = icmp eq ptr %13, null
  br i1 %14, label %15, label %17

15:                                               ; preds = %2
  %16 = call ptr @PyLong_FromLong(i64 noundef 0)
  store ptr %16, ptr %3, align 8
  store i32 1, ptr %9, align 4
  br label %39

17:                                               ; preds = %2
  %18 = load ptr, ptr %6, align 8, !tbaa !9
  %19 = getelementptr inbounds nuw %struct.reversedobject, ptr %18, i32 0, i32 2
  %20 = load ptr, ptr %19, align 8, !tbaa !33
  %21 = call i64 @PySequence_Size(ptr noundef %20)
  store i64 %21, ptr %8, align 8, !tbaa !30
  %22 = load i64, ptr %8, align 8, !tbaa !30
  %23 = icmp eq i64 %22, -1
  br i1 %23, label %24, label %25

24:                                               ; preds = %17
  store ptr null, ptr %3, align 8
  store i32 1, ptr %9, align 4
  br label %39

25:                                               ; preds = %17
  %26 = load ptr, ptr %6, align 8, !tbaa !9
  %27 = getelementptr inbounds nuw %struct.reversedobject, ptr %26, i32 0, i32 1
  %28 = load i64, ptr %27, align 8, !tbaa !35
  %29 = add i64 %28, 1
  store i64 %29, ptr %7, align 8, !tbaa !30
  %30 = load i64, ptr %8, align 8, !tbaa !30
  %31 = load i64, ptr %7, align 8, !tbaa !30
  %32 = icmp slt i64 %30, %31
  br i1 %32, label %33, label %34

33:                                               ; preds = %25
  br label %36

34:                                               ; preds = %25
  %35 = load i64, ptr %7, align 8, !tbaa !30
  br label %36

36:                                               ; preds = %34, %33
  %37 = phi i64 [ 0, %33 ], [ %35, %34 ]
  %38 = call ptr @PyLong_FromSsize_t(i64 noundef %37)
  store ptr %38, ptr %3, align 8
  store i32 1, ptr %9, align 4
  br label %39

39:                                               ; preds = %36, %24, %15
  call void @llvm.lifetime.end.p0(i64 8, ptr %8) #7
  call void @llvm.lifetime.end.p0(i64 8, ptr %7) #7
  call void @llvm.lifetime.end.p0(i64 8, ptr %6) #7
  %40 = load ptr, ptr %3, align 8
  ret ptr %40
}