; Function Attrs: nounwind uwtable
define internal ptr @reversed_len(ptr noundef readonly captures(none) %0, ptr readnone captures(none) %1) #0 {
  %3 = getelementptr inbounds nuw i8, ptr %0, i64 24
  %4 = load ptr, ptr %3, align 8, !tbaa !117
  %5 = icmp eq ptr %4, null
  br i1 %5, label %6, label %8

6:                                                ; preds = %2
  %7 = tail call ptr @PyLong_FromLong(i64 noundef 0) #4
  br label %18

8:                                                ; preds = %2
  %9 = tail call i64 @PySequence_Size(ptr noundef nonnull %4) #4
  %10 = icmp eq i64 %9, -1
  br i1 %10, label %18, label %11

11:                                               ; preds = %8
  %12 = getelementptr inbounds nuw i8, ptr %0, i64 16
  %13 = load i64, ptr %12, align 8, !tbaa !119
  %14 = add i64 %13, 1
  %15 = icmp slt i64 %9, %14
  %16 = select i1 %15, i64 0, i64 %14
  %17 = tail call ptr @PyLong_FromSsize_t(i64 noundef %16) #4
  br label %18

18:                                               ; preds = %8, %11, %6
  %.0 = phi ptr [ %7, %6 ], [ %17, %11 ], [ null, %8 ]
  ret ptr %.0
}